; Function Attrs: mustprogress uwtable
define void @_ZN14VrmlTranslator6Parser21InterfaceDeclarationsER11QDomElement(ptr noundef nonnull align 8 dereferenceable(208) %0, ptr noundef nonnull align 8 dereferenceable(8) %1) local_unnamed_addr #0 align 2 {
  %3 = getelementptr inbounds nuw i8, ptr %0, i64 48
  %4 = load ptr, ptr %3, align 8
  %5 = load i32, ptr %4, align 8
  %6 = sext i32 %5 to i64
  %7 = getelementptr inbounds [12 x [87 x i8]], ptr @_ZZN14VrmlTranslator6Parser7StartOfEiE3set, i64 0, i64 3, i64 %6
  %8 = load i8, ptr %7, align 1
  %9 = trunc i8 %8 to i1
  br i1 %9, label %.lr.ph, label %._crit_edge

.lr.ph:                                           ; preds = %2, %.lr.ph
  tail call void @_ZN14VrmlTranslator6Parser20InterfaceDeclarationER11QDomElement(ptr noundef nonnull align 8 dereferenceable(208) %0, ptr noundef nonnull align 8 dereferenceable(8) %1)
  %10 = load ptr, ptr %3, align 8
  %11 = load i32, ptr %10, align 8
  %12 = sext i32 %11 to i64
  %13 = getelementptr inbounds [12 x [87 x i8]], ptr @_ZZN14VrmlTranslator6Parser7StartOfEiE3set, i64 0, i64 3, i64 %12
  %14 = load i8, ptr %13, align 1
  %15 = trunc i8 %14 to i1
  br i1 %15, label %.lr.ph, label %._crit_edge, !llvm.loop !17

._crit_edge:                                      ; preds = %.lr.ph, %2
  ret void
}